; Function Attrs: nounwind uwtable
define dso_local void @reftable_buf_release(ptr noundef captures(none) initializes((0, 16)) %0) local_unnamed_addr #0 {
  %2 = getelementptr inbounds nuw i8, ptr %0, i64 16
  %3 = load ptr, ptr %2, align 8, !tbaa !8
  %4 = load ptr, ptr @reftable_free_ptr, align 8, !tbaa !4
  %.not.i = icmp eq ptr %4, null
  br i1 %.not.i, label %6, label %5

5:                                                ; preds = %1
  tail call void %4(ptr noundef %3) #20
  br label %reftable_free.exit

6:                                                ; preds = %1
  tail call void @free(ptr noundef %3) #20
  br label %reftable_free.exit

reftable_free.exit:                               ; preds = %5, %6
  tail call void @llvm.memset.p0.i64(ptr noundef nonnull align 8 dereferenceable(24) %0, i8 0, i64 24, i1 false)
  ret void
}